target datalayout = "e-m:e-p270:32:32-p271:32:32-p272:64:64-i64:64-i128:128-f80:128-n8:16:32:64-S128"
target triple = "x86_64-pc-linux-gnu"

%struct.timeval = type { i64, i64 }
%struct.SHA256_CTX = type { [64 x i8], i32, i64, [8 x i32] }

@getRandomBytes.seed_initialized = internal global i32 0, align 4
@getRandomBytes.seed = internal global [64 x i8] zeroinitializer, align 16
@getRandomBytes.counter = internal global i64 0, align 8
@.str.15 = private unnamed_addr constant [13 x i8] c"/dev/urandom\00", align 1
@.str.16 = private unnamed_addr constant [2 x i8] c"r\00", align 1

; Function Attrs: nounwind uwtable
define dso_local void @getRandomBytes(ptr noundef %0, i64 noundef %1) #0 {
  %3 = alloca ptr, align 8
  %4 = alloca i64, align 8
  %5 = alloca ptr, align 8
  %6 = alloca i32, align 4
  %7 = alloca %struct.timeval, align 8
  %8 = alloca i32, align 4
  %9 = alloca [32 x i8], align 16
  %10 = alloca [64 x i8], align 16
  %11 = alloca i32, align 4
  %12 = alloca i32, align 4
  %13 = alloca %struct.SHA256_CTX, align 8
  %14 = alloca i32, align 4
  store ptr %0, ptr %3, align 8, !tbaa !5
  store i64 %1, ptr %4, align 8, !tbaa !29
  %15 = load i32, ptr @getRandomBytes.seed_initialized, align 4, !tbaa !10
  %16 = icmp ne i32 %15, 0
  br i1 %16, label %61, label %17

17:                                               ; preds = %2
  call void @llvm.lifetime.start.p0(i64 8, ptr %5) #13
  %18 = call noalias ptr @fopen64(ptr noundef @.str.15, ptr noundef @.str.16)
  store ptr %18, ptr %5, align 8, !tbaa !55
  %19 = load ptr, ptr %5, align 8, !tbaa !55
  %20 = icmp eq ptr %19, null
  br i1 %20, label %25, label %21

21:                                               ; preds = %17
  %22 = load ptr, ptr %5, align 8, !tbaa !55
  %23 = call i64 @fread(ptr noundef @getRandomBytes.seed, i64 noundef 64, i64 noundef 1, ptr noundef %22)
  %24 = icmp ne i64 %23, 1
  br i1 %24, label %25, label %53

25:                                               ; preds = %21, %17
  call void @llvm.lifetime.start.p0(i64 4, ptr %6) #13
  store i32 0, ptr %6, align 4, !tbaa !10
  br label %26

26:                                               ; preds = %49, %25
  %27 = load i32, ptr %6, align 4, !tbaa !10
  %28 = zext i32 %27 to i64
  %29 = icmp ult i64 %28, 64
  br i1 %29, label %31, label %30

30:                                               ; preds = %26
  call void @llvm.lifetime.end.p0(i64 4, ptr %6) #13
  br label %52

31:                                               ; preds = %26
  call void @llvm.lifetime.start.p0(i64 16, ptr %7) #13
  %32 = call i32 @gettimeofday(ptr noundef %7, ptr noundef null) #13
  call void @llvm.lifetime.start.p0(i64 4, ptr %8) #13
  %33 = call i32 @getpid() #13
  store i32 %33, ptr %8, align 4, !tbaa !10
  %34 = getelementptr inbounds nuw %struct.timeval, ptr %7, i32 0, i32 0
  %35 = load i64, ptr %34, align 8, !tbaa !57
  %36 = getelementptr inbounds nuw %struct.timeval, ptr %7, i32 0, i32 1
  %37 = load i64, ptr %36, align 8, !tbaa !59
  %38 = xor i64 %35, %37
  %39 = load i32, ptr %8, align 4, !tbaa !10
  %40 = sext i32 %39 to i64
  %41 = xor i64 %38, %40
  %42 = load ptr, ptr %5, align 8, !tbaa !55
  %43 = ptrtoint ptr %42 to i64
  %44 = xor i64 %41, %43
  %45 = trunc i64 %44 to i8
  %46 = load i32, ptr %6, align 4, !tbaa !10
  %47 = zext i32 %46 to i64
  %48 = getelementptr inbounds nuw [64 x i8], ptr @getRandomBytes.seed, i64 0, i64 %47
  store i8 %45, ptr %48, align 1, !tbaa !12
  call void @llvm.lifetime.end.p0(i64 4, ptr %8) #13
  call void @llvm.lifetime.end.p0(i64 16, ptr %7) #13
  br label %49

49:                                               ; preds = %31
  %50 = load i32, ptr %6, align 4, !tbaa !10
  %51 = add i32 %50, 1
  store i32 %51, ptr %6, align 4, !tbaa !10
  br label %26, !llvm.loop !60

52:                                               ; preds = %30
  br label %54

53:                                               ; preds = %21
  store i32 1, ptr @getRandomBytes.seed_initialized, align 4, !tbaa !10
  br label %54

54:                                               ; preds = %53, %52
  %55 = load ptr, ptr %5, align 8, !tbaa !55
  %56 = icmp ne ptr %55, null
  br i1 %56, label %57, label %60

57:                                               ; preds = %54
  %58 = load ptr, ptr %5, align 8, !tbaa !55
  %59 = call i32 @fclose(ptr noundef %58)
  br label %60

60:                                               ; preds = %57, %54
  call void @llvm.lifetime.end.p0(i64 8, ptr %5) #13
  br label %61

61:                                               ; preds = %60, %2
  br label %62

62:                                               ; preds = %111, %61
  %63 = load i64, ptr %4, align 8, !tbaa !29
  %64 = icmp ne i64 %63, 0
  br i1 %64, label %65, label %129

65:                                               ; preds = %62
  call void @llvm.lifetime.start.p0(i64 32, ptr %9) #13
  call void @llvm.lifetime.start.p0(i64 64, ptr %10) #13
  call void @llvm.lifetime.start.p0(i64 4, ptr %11) #13
  %66 = load i64, ptr %4, align 8, !tbaa !29
  %67 = icmp ugt i64 %66, 32
  br i1 %67, label %68, label %69

68:                                               ; preds = %65
  br label %71

69:                                               ; preds = %65
  %70 = load i64, ptr %4, align 8, !tbaa !29
  br label %71

71:                                               ; preds = %69, %68
  %72 = phi i64 [ 32, %68 ], [ %70, %69 ]
  %73 = trunc i64 %72 to i32
  store i32 %73, ptr %11, align 4, !tbaa !10
  %74 = getelementptr inbounds [64 x i8], ptr %10, i64 0, i64 0
  call void @llvm.memcpy.p0.p0.i64(ptr align 16 %74, ptr align 16 @getRandomBytes.seed, i64 64, i1 false)
  call void @llvm.lifetime.start.p0(i64 4, ptr %12) #13
  store i32 0, ptr %12, align 4, !tbaa !10
  br label %75

75:                                               ; preds = %88, %71
  %76 = load i32, ptr %12, align 4, !tbaa !10
  %77 = zext i32 %76 to i64
  %78 = icmp ult i64 %77, 64
  br i1 %78, label %80, label %79

79:                                               ; preds = %75
  call void @llvm.lifetime.end.p0(i64 4, ptr %12) #13
  br label %91

80:                                               ; preds = %75
  %81 = load i32, ptr %12, align 4, !tbaa !10
  %82 = zext i32 %81 to i64
  %83 = getelementptr inbounds nuw [64 x i8], ptr %10, i64 0, i64 %82
  %84 = load i8, ptr %83, align 1, !tbaa !12
  %85 = zext i8 %84 to i32
  %86 = xor i32 %85, 54
  %87 = trunc i32 %86 to i8
  store i8 %87, ptr %83, align 1, !tbaa !12
  br label %88

88:                                               ; preds = %80
  %89 = load i32, ptr %12, align 4, !tbaa !10
  %90 = add i32 %89, 1
  store i32 %90, ptr %12, align 4, !tbaa !10
  br label %75, !llvm.loop !61

91:                                               ; preds = %79
  call void @llvm.lifetime.start.p0(i64 112, ptr %13) #13
  call void @sha256_init(ptr noundef %13)
  %92 = getelementptr inbounds [64 x i8], ptr %10, i64 0, i64 0
  call void @sha256_update(ptr noundef %13, ptr noundef %92, i64 noundef 64)
  call void @sha256_update(ptr noundef %13, ptr noundef @getRandomBytes.counter, i64 noundef 8)
  %93 = getelementptr inbounds [32 x i8], ptr %9, i64 0, i64 0
  call void @sha256_final(ptr noundef %13, ptr noundef %93)
  %94 = getelementptr inbounds [64 x i8], ptr %10, i64 0, i64 0
  call void @llvm.memcpy.p0.p0.i64(ptr align 16 %94, ptr align 16 @getRandomBytes.seed, i64 64, i1 false)
  call void @llvm.lifetime.start.p0(i64 4, ptr %14) #13
  store i32 0, ptr %14, align 4, !tbaa !10
  br label %95

95:                                               ; preds = %108, %91
  %96 = load i32, ptr %14, align 4, !tbaa !10
  %97 = zext i32 %96 to i64
  %98 = icmp ult i64 %97, 64
  br i1 %98, label %100, label %99

99:                                               ; preds = %95
  call void @llvm.lifetime.end.p0(i64 4, ptr %14) #13
  br label %111

100:                                              ; preds = %95
  %101 = load i32, ptr %14, align 4, !tbaa !10
  %102 = zext i32 %101 to i64
  %103 = getelementptr inbounds nuw [64 x i8], ptr %10, i64 0, i64 %102
  %104 = load i8, ptr %103, align 1, !tbaa !12
  %105 = zext i8 %104 to i32
  %106 = xor i32 %105, 92
  %107 = trunc i32 %106 to i8
  store i8 %107, ptr %103, align 1, !tbaa !12
  br label %108

108:                                              ; preds = %100
  %109 = load i32, ptr %14, align 4, !tbaa !10
  %110 = add i32 %109, 1
  store i32 %110, ptr %14, align 4, !tbaa !10
  br label %95, !llvm.loop !62

111:                                              ; preds = %99
  call void @sha256_init(ptr noundef %13)
  %112 = getelementptr inbounds [64 x i8], ptr %10, i64 0, i64 0
  call void @sha256_update(ptr noundef %13, ptr noundef %112, i64 noundef 64)
  %113 = getelementptr inbounds [32 x i8], ptr %9, i64 0, i64 0
  call void @sha256_update(ptr noundef %13, ptr noundef %113, i64 noundef 32)
  %114 = getelementptr inbounds [32 x i8], ptr %9, i64 0, i64 0
  call void @sha256_final(ptr noundef %13, ptr noundef %114)
  %115 = load i64, ptr @getRandomBytes.counter, align 8, !tbaa !29
  %116 = add i64 %115, 1
  store i64 %116, ptr @getRandomBytes.counter, align 8, !tbaa !29
  %117 = load ptr, ptr %3, align 8, !tbaa !5
  %118 = getelementptr inbounds [32 x i8], ptr %9, i64 0, i64 0
  %119 = load i32, ptr %11, align 4, !tbaa !10
  %120 = zext i32 %119 to i64
  call void @llvm.memcpy.p0.p0.i64(ptr align 1 %117, ptr align 16 %118, i64 %120, i1 false)
  %121 = load i32, ptr %11, align 4, !tbaa !10
  %122 = zext i32 %121 to i64
  %123 = load i64, ptr %4, align 8, !tbaa !29
  %124 = sub i64 %123, %122
  store i64 %124, ptr %4, align 8, !tbaa !29
  %125 = load i32, ptr %11, align 4, !tbaa !10
  %126 = load ptr, ptr %3, align 8, !tbaa !5
  %127 = zext i32 %125 to i64
  %128 = getelementptr inbounds nuw i8, ptr %126, i64 %127
  store ptr %128, ptr %3, align 8, !tbaa !5
  call void @llvm.lifetime.end.p0(i64 112, ptr %13) #13
  call void @llvm.lifetime.end.p0(i64 4, ptr %11) #13
  call void @llvm.lifetime.end.p0(i64 64, ptr %10) #13
  call void @llvm.lifetime.end.p0(i64 32, ptr %9) #13
  br label %62, !llvm.loop !63

129:                                              ; preds = %62
  ret void
}