; Function Attrs: nounwind uwtable
define dso_local void @getRandomBytes(ptr noundef writeonly captures(none) %0, i64 noundef %1) local_unnamed_addr #4 {
  %3 = alloca %struct.timeval, align 8
  %4 = alloca [32 x i8], align 16
  %5 = alloca [64 x i8], align 16
  %6 = alloca %struct.SHA256_CTX, align 8
  %.b = load i1, ptr @getRandomBytes.seed_initialized, align 4
  br i1 %.b, label %29, label %7

7:                                                ; preds = %2
  %8 = tail call noalias ptr @fopen64(ptr noundef nonnull @.str.15, ptr noundef nonnull @.str.16)
  %9 = icmp eq ptr %8, null
  br i1 %9, label %12, label %10

10:                                               ; preds = %7
  %11 = tail call i64 @fread(ptr noundef nonnull @getRandomBytes.seed, i64 noundef 64, i64 noundef 1, ptr noundef nonnull %8)
  %.not = icmp eq i64 %11, 1
  br i1 %.not, label %.thread, label %12

12:                                               ; preds = %10, %7
  %13 = getelementptr inbounds nuw i8, ptr %3, i64 8
  %14 = ptrtoint ptr %8 to i64
  br label %15

15:                                               ; preds = %12, %15
  %indvars.iv = phi i64 [ 0, %12 ], [ %indvars.iv.next, %15 ]
  call void @llvm.lifetime.start.p0(i64 16, ptr nonnull %3) #29
  %16 = call i32 @gettimeofday(ptr noundef nonnull %3, ptr noundef null) #29
  %17 = tail call i32 @getpid() #29
  %18 = load i64, ptr %3, align 8, !tbaa !47
  %19 = load i64, ptr %13, align 8, !tbaa !49
  %20 = zext i32 %17 to i64
  %21 = xor i64 %18, %14
  %22 = xor i64 %21, %20
  %23 = xor i64 %22, %19
  %24 = trunc i64 %23 to i8
  %25 = getelementptr inbounds nuw [64 x i8], ptr @getRandomBytes.seed, i64 0, i64 %indvars.iv
  store i8 %24, ptr %25, align 1, !tbaa !9
  call void @llvm.lifetime.end.p0(i64 16, ptr nonnull %3) #29
  %indvars.iv.next = add nuw nsw i64 %indvars.iv, 1
  %exitcond.not = icmp eq i64 %indvars.iv.next, 64
  br i1 %exitcond.not, label %26, label %15, !llvm.loop !50

.thread:                                          ; preds = %10
  store i1 true, ptr @getRandomBytes.seed_initialized, align 4
  br label %27

26:                                               ; preds = %15
  br i1 %9, label %29, label %27

27:                                               ; preds = %.thread, %26
  %28 = tail call i32 @fclose(ptr noundef nonnull %8)
  br label %29

29:                                               ; preds = %26, %27, %2
  %.not3236 = icmp eq i64 %1, 0
  br i1 %.not3236, label %._crit_edge, label %.lr.ph

.lr.ph:                                           ; preds = %29, %35
  %.02438 = phi ptr [ %40, %35 ], [ %0, %29 ]
  %.02537 = phi i64 [ %39, %35 ], [ %1, %29 ]
  call void @llvm.lifetime.start.p0(i64 32, ptr nonnull %4) #29
  call void @llvm.lifetime.start.p0(i64 64, ptr nonnull %5) #29
  call void @llvm.memcpy.p0.p0.i64(ptr noundef nonnull align 16 dereferenceable(64) %5, ptr noundef nonnull align 16 dereferenceable(64) @getRandomBytes.seed, i64 64, i1 false)
  br label %31

30:                                               ; preds = %31
  call void @llvm.lifetime.start.p0(i64 112, ptr nonnull %6) #29
  call void @sha256_init(ptr noundef nonnull %6) #29
  call void @sha256_update(ptr noundef nonnull %6, ptr noundef nonnull %5, i64 noundef 64) #29
  call void @sha256_update(ptr noundef nonnull %6, ptr noundef nonnull @getRandomBytes.counter, i64 noundef 8) #29
  call void @sha256_final(ptr noundef nonnull %6, ptr noundef nonnull %4) #29
  call void @llvm.memcpy.p0.p0.i64(ptr noundef nonnull align 16 dereferenceable(64) %5, ptr noundef nonnull align 16 dereferenceable(64) @getRandomBytes.seed, i64 64, i1 false)
  br label %41

31:                                               ; preds = %.lr.ph, %31
  %indvars.iv40 = phi i64 [ 0, %.lr.ph ], [ %indvars.iv.next41, %31 ]
  %32 = getelementptr inbounds nuw [64 x i8], ptr %5, i64 0, i64 %indvars.iv40
  %33 = load i8, ptr %32, align 1, !tbaa !9
  %34 = xor i8 %33, 54
  store i8 %34, ptr %32, align 1, !tbaa !9
  %indvars.iv.next41 = add nuw nsw i64 %indvars.iv40, 1
  %exitcond43.not = icmp eq i64 %indvars.iv.next41, 64
  br i1 %exitcond43.not, label %30, label %31, !llvm.loop !51

35:                                               ; preds = %41
  %36 = call i64 @llvm.umin.i64(i64 %.02537, i64 32)
  call void @sha256_init(ptr noundef nonnull %6) #29
  call void @sha256_update(ptr noundef nonnull %6, ptr noundef nonnull %5, i64 noundef 64) #29
  call void @sha256_update(ptr noundef nonnull %6, ptr noundef nonnull %4, i64 noundef 32) #29
  call void @sha256_final(ptr noundef nonnull %6, ptr noundef nonnull %4) #29
  %37 = load i64, ptr @getRandomBytes.counter, align 8, !tbaa !37
  %38 = add i64 %37, 1
  store i64 %38, ptr @getRandomBytes.counter, align 8, !tbaa !37
  call void @llvm.memcpy.p0.p0.i64(ptr noundef nonnull align 1 dereferenceable(1) %.02438, ptr noundef nonnull align 16 dereferenceable(1) %4, i64 %36, i1 false)
  %39 = sub i64 %.02537, %36
  %40 = getelementptr inbounds nuw i8, ptr %.02438, i64 %36
  call void @llvm.lifetime.end.p0(i64 112, ptr nonnull %6) #29
  call void @llvm.lifetime.end.p0(i64 64, ptr nonnull %5) #29
  call void @llvm.lifetime.end.p0(i64 32, ptr nonnull %4) #29
  %.not32 = icmp eq i64 %39, 0
  br i1 %.not32, label %._crit_edge, label %.lr.ph, !llvm.loop !52

41:                                               ; preds = %30, %41
  %indvars.iv44 = phi i64 [ 0, %30 ], [ %indvars.iv.next45, %41 ]
  %42 = getelementptr inbounds nuw [64 x i8], ptr %5, i64 0, i64 %indvars.iv44
  %43 = load i8, ptr %42, align 1, !tbaa !9
  %44 = xor i8 %43, 92
  store i8 %44, ptr %42, align 1, !tbaa !9
  %indvars.iv.next45 = add nuw nsw i64 %indvars.iv44, 1
  %exitcond47.not = icmp eq i64 %indvars.iv.next45, 64
  br i1 %exitcond47.not, label %35, label %41, !llvm.loop !53

._crit_edge:                                      ; preds = %35, %29
  ret void
}